target datalayout = "e-m:e-p270:32:32-p271:32:32-p272:64:64-i64:64-i128:128-f80:128-n8:16:32:64-S128"
target triple = "x86_64-pc-linux-gnu"

%"class.arrow::util::Voidify" = type { i8 }
%"class.arrow::util::ArrowLog" = type <{ %"class.arrow::util::ArrowLogBase", ptr, i8, [7 x i8] }>
%"class.arrow::util::ArrowLogBase" = type { ptr }
%"struct.arrow::ArrayData" = type { %"class.std::shared_ptr.7", i64, %"struct.std::atomic", i64, %"class.std::vector", %"class.std::vector.10", %"class.std::shared_ptr", %"class.std::shared_ptr.15" }
%"class.std::shared_ptr.7" = type { %"class.std::__shared_ptr.8" }
%"class.std::__shared_ptr.8" = type { ptr, %"class.std::__shared_count" }
%"class.std::__shared_count" = type { ptr }
%"struct.std::atomic" = type { %"struct.std::__atomic_base" }
%"struct.std::__atomic_base" = type { i64 }
%"class.std::vector" = type { %"struct.std::_Vector_base" }
%"struct.std::_Vector_base" = type { %"struct.std::_Vector_base<std::shared_ptr<arrow::Buffer>, std::allocator<std::shared_ptr<arrow::Buffer>>>::_Vector_impl" }
%"struct.std::_Vector_base<std::shared_ptr<arrow::Buffer>, std::allocator<std::shared_ptr<arrow::Buffer>>>::_Vector_impl" = type { %"struct.std::_Vector_base<std::shared_ptr<arrow::Buffer>, std::allocator<std::shared_ptr<arrow::Buffer>>>::_Vector_impl_data" }
%"struct.std::_Vector_base<std::shared_ptr<arrow::Buffer>, std::allocator<std::shared_ptr<arrow::Buffer>>>::_Vector_impl_data" = type { ptr, ptr, ptr }
%"class.std::vector.10" = type { %"struct.std::_Vector_base.11" }
%"struct.std::_Vector_base.11" = type { %"struct.std::_Vector_base<std::shared_ptr<arrow::ArrayData>, std::allocator<std::shared_ptr<arrow::ArrayData>>>::_Vector_impl" }
%"struct.std::_Vector_base<std::shared_ptr<arrow::ArrayData>, std::allocator<std::shared_ptr<arrow::ArrayData>>>::_Vector_impl" = type { %"struct.std::_Vector_base<std::shared_ptr<arrow::ArrayData>, std::allocator<std::shared_ptr<arrow::ArrayData>>>::_Vector_impl_data" }
%"struct.std::_Vector_base<std::shared_ptr<arrow::ArrayData>, std::allocator<std::shared_ptr<arrow::ArrayData>>>::_Vector_impl_data" = type { ptr, ptr, ptr }
%"class.std::shared_ptr" = type { %"class.std::__shared_ptr" }
%"class.std::__shared_ptr" = type { ptr, %"class.std::__shared_count" }
%"class.std::shared_ptr.15" = type { %"class.std::__shared_ptr.16" }
%"class.std::__shared_ptr.16" = type { ptr, %"class.std::__shared_count" }
%"class.arrow::DataType" = type { %"class.arrow::detail::Fingerprintable", %"class.std::enable_shared_from_this", i32, %"class.std::vector.20" }
%"class.arrow::detail::Fingerprintable" = type { ptr, %"struct.std::atomic.18", %"struct.std::atomic.18" }
%"struct.std::atomic.18" = type { %"struct.std::__atomic_base.19" }
%"struct.std::__atomic_base.19" = type { ptr }
%"class.std::enable_shared_from_this" = type { %"class.std::weak_ptr" }
%"class.std::weak_ptr" = type { %"class.std::__weak_ptr" }
%"class.std::__weak_ptr" = type { ptr, %"class.std::__weak_count" }
%"class.std::__weak_count" = type { ptr }
%"class.std::vector.20" = type { %"struct.std::_Vector_base.21" }
%"struct.std::_Vector_base.21" = type { %"struct.std::_Vector_base<std::shared_ptr<arrow::Field>, std::allocator<std::shared_ptr<arrow::Field>>>::_Vector_impl" }
%"struct.std::_Vector_base<std::shared_ptr<arrow::Field>, std::allocator<std::shared_ptr<arrow::Field>>>::_Vector_impl" = type { %"struct.std::_Vector_base<std::shared_ptr<arrow::Field>, std::allocator<std::shared_ptr<arrow::Field>>>::_Vector_impl_data" }
%"struct.std::_Vector_base<std::shared_ptr<arrow::Field>, std::allocator<std::shared_ptr<arrow::Field>>>::_Vector_impl_data" = type { ptr, ptr, ptr }

@_ZTVN5arrow14Decimal32ArrayE = linkonce_odr unnamed_addr constant { [4 x ptr] } { [4 x ptr] [ptr null, ptr @_ZTIN5arrow14Decimal32ArrayE, ptr @_ZN5arrow5ArrayD2Ev, ptr @_ZN5arrow14Decimal32ArrayD0Ev] }, comdat, align 8
@.str = private unnamed_addr constant [126 x i8] c"generated/home/dtcxzyw/WorkSpace/Projects/compilers/llvm-opt-benchmark/bench/arrow/arrow/cpp/src/arrow/array/array_decimal.cc\00", align 1
@.str.1 = private unnamed_addr constant [56 x i8] c" Check failed: (data->type->id()) == (Type::DECIMAL32) \00", align 1

; Function Attrs: mustprogress nounwind uwtable
define linkonce_odr noundef ptr @_ZNKSt12__shared_ptrIN5arrow8DataTypeELN9__gnu_cxx12_Lock_policyE2EE3getEv(ptr noundef nonnull align 8 dereferenceable(16) %0) #0 comdat align 2 {
  %2 = alloca ptr, align 8
  store ptr %0, ptr %2, align 8, !tbaa !169
  %3 = load ptr, ptr %2, align 8
  %4 = getelementptr inbounds nuw %"class.std::__shared_ptr.8", ptr %3, i32 0, i32 0
  %5 = load ptr, ptr %4, align 8, !tbaa !171
  ret ptr %5
}

; Function Attrs: mustprogress nounwind uwtable
define linkonce_odr noundef ptr @_ZNKSt12__shared_ptrIN5arrow9ArrayDataELN9__gnu_cxx12_Lock_policyE2EE3getEv(ptr noundef nonnull align 8 dereferenceable(16) %0) #0 comdat align 2 {
  %2 = alloca ptr, align 8
  store ptr %0, ptr %2, align 8, !tbaa !130
  %3 = load ptr, ptr %2, align 8
  %4 = getelementptr inbounds nuw %"class.std::__shared_ptr", ptr %3, i32 0, i32 0
  %5 = load ptr, ptr %4, align 8, !tbaa !173
  ret ptr %5
}

; Function Attrs: mustprogress nounwind uwtable
define linkonce_odr noundef ptr @_ZNKSt19__shared_ptr_accessIN5arrow8DataTypeELN9__gnu_cxx12_Lock_policyE2ELb0ELb0EE6_M_getEv(ptr noundef nonnull align 1 dereferenceable(1) %0) #0 comdat align 2 {
  %2 = alloca ptr, align 8
  store ptr %0, ptr %2, align 8, !tbaa !61
  %3 = load ptr, ptr %2, align 8
  %4 = call noundef ptr @_ZNKSt12__shared_ptrIN5arrow8DataTypeELN9__gnu_cxx12_Lock_policyE2EE3getEv(ptr noundef nonnull align 8 dereferenceable(16) %3) #15
  ret ptr %4
}

; Function Attrs: mustprogress nounwind uwtable
define linkonce_odr noundef ptr @_ZNKSt19__shared_ptr_accessIN5arrow9ArrayDataELN9__gnu_cxx12_Lock_policyE2ELb0ELb0EE6_M_getEv(ptr noundef nonnull align 1 dereferenceable(1) %0) #0 comdat align 2 {
  %2 = alloca ptr, align 8
  store ptr %0, ptr %2, align 8, !tbaa !59
  %3 = load ptr, ptr %2, align 8
  %4 = call noundef ptr @_ZNKSt12__shared_ptrIN5arrow9ArrayDataELN9__gnu_cxx12_Lock_policyE2EE3getEv(ptr noundef nonnull align 8 dereferenceable(16) %3) #15
  ret ptr %4
}

; Function Attrs: mustprogress nounwind uwtable
define linkonce_odr void @_ZN5arrow4util7VoidifyanERNS0_12ArrowLogBaseE(ptr noundef nonnull align 1 dereferenceable(1) %0, ptr noundef nonnull align 8 dereferenceable(8) %1) #0 comdat align 2 {
  %3 = alloca ptr, align 8
  %4 = alloca ptr, align 8
  store ptr %0, ptr %3, align 8, !tbaa !82
  store ptr %1, ptr %4, align 8, !tbaa !84
  ret void
}

; Function Attrs: mustprogress nounwind uwtable
define linkonce_odr void @_ZN5arrow4util7VoidifyC2Ev(ptr noundef nonnull align 1 dereferenceable(1) %0) unnamed_addr #0 comdat align 2 {
  %2 = alloca ptr, align 8
  store ptr %0, ptr %2, align 8, !tbaa !82
  ret void
}

; Function Attrs: mustprogress nounwind uwtable
define linkonce_odr noundef i32 @_ZNK5arrow8DataType2idEv(ptr noundef nonnull align 8 dereferenceable(72) %0) #0 comdat align 2 {
  %2 = alloca ptr, align 8
  store ptr %0, ptr %2, align 8, !tbaa !63
  %3 = load ptr, ptr %2, align 8
  %4 = getelementptr inbounds nuw %"class.arrow::DataType", ptr %3, i32 0, i32 2
  %5 = load i32, ptr %4, align 8, !tbaa !65
  ret i32 %5
}

; Function Attrs: mustprogress nounwind uwtable
define linkonce_odr noundef ptr @_ZNKSt19__shared_ptr_accessIN5arrow8DataTypeELN9__gnu_cxx12_Lock_policyE2ELb0ELb0EEptEv(ptr noundef nonnull align 1 dereferenceable(1) %0) #0 comdat align 2 {
  %2 = alloca ptr, align 8
  store ptr %0, ptr %2, align 8, !tbaa !61
  %3 = load ptr, ptr %2, align 8
  %4 = call noundef ptr @_ZNKSt19__shared_ptr_accessIN5arrow8DataTypeELN9__gnu_cxx12_Lock_policyE2ELb0ELb0EE6_M_getEv(ptr noundef nonnull align 1 dereferenceable(1) %3) #15
  ret ptr %4
}

; Function Attrs: mustprogress nounwind uwtable
define linkonce_odr noundef ptr @_ZNKSt19__shared_ptr_accessIN5arrow9ArrayDataELN9__gnu_cxx12_Lock_policyE2ELb0ELb0EEptEv(ptr noundef nonnull align 1 dereferenceable(1) %0) #0 comdat align 2 {
  %2 = alloca ptr, align 8
  store ptr %0, ptr %2, align 8, !tbaa !59
  %3 = load ptr, ptr %2, align 8
  %4 = call noundef ptr @_ZNKSt19__shared_ptr_accessIN5arrow9ArrayDataELN9__gnu_cxx12_Lock_policyE2ELb0ELb0EE6_M_getEv(ptr noundef nonnull align 1 dereferenceable(1) %3) #15
  ret ptr %4
}

; Function Attrs: mustprogress uwtable
define void @_ZN5arrow14Decimal32ArrayC2ERKSt10shared_ptrINS_9ArrayDataEE(ptr noundef nonnull align 8 dereferenceable(52) %0, ptr noundef nonnull align 8 dereferenceable(16) %1) unnamed_addr #1 align 2 personality ptr @__gxx_personality_v0 {
  %3 = alloca ptr, align 8
  %4 = alloca ptr, align 8
  %5 = alloca ptr, align 8
  %6 = alloca i32, align 4
  %7 = alloca %"class.arrow::util::Voidify", align 1
  %8 = alloca %"class.arrow::util::ArrowLog", align 8
  %9 = alloca i1, align 1
  %10 = alloca i1, align 1
  store ptr %0, ptr %3, align 8, !tbaa !53
  store ptr %1, ptr %4, align 8, !tbaa !55
  %11 = load ptr, ptr %3, align 8
  %12 = load ptr, ptr %4, align 8, !tbaa !55
  call void @_ZN5arrow20FixedSizeBinaryArrayC2ERKSt10shared_ptrINS_9ArrayDataEE(ptr noundef nonnull align 8 dereferenceable(52) %11, ptr noundef nonnull align 8 dereferenceable(16) %12)
  store ptr getelementptr inbounds inrange(-16, 16) ({ [4 x ptr] }, ptr @_ZTVN5arrow14Decimal32ArrayE, i32 0, i32 0, i32 2), ptr %11, align 8, !tbaa !57
  %13 = load ptr, ptr %4, align 8, !tbaa !55
  %14 = call noundef ptr @_ZNKSt19__shared_ptr_accessIN5arrow9ArrayDataELN9__gnu_cxx12_Lock_policyE2ELb0ELb0EEptEv(ptr noundef nonnull align 1 dereferenceable(1) %13) #15
  %15 = getelementptr inbounds nuw %"struct.arrow::ArrayData", ptr %14, i32 0, i32 0
  %16 = call noundef ptr @_ZNKSt19__shared_ptr_accessIN5arrow8DataTypeELN9__gnu_cxx12_Lock_policyE2ELb0ELb0EEptEv(ptr noundef nonnull align 1 dereferenceable(1) %15) #15
  call void @llvm.lifetime.start.p0(i64 1, ptr %7) #15
  store i1 false, ptr %9, align 1
  store i1 false, ptr %10, align 1
  %17 = invoke noundef i32 @_ZNK5arrow8DataType2idEv(ptr noundef nonnull align 8 dereferenceable(72) %16)
          to label %18 unwind label %39

18:                                               ; preds = %2
  %19 = icmp eq i32 %17, 43
  %20 = xor i1 %19, true
  %21 = xor i1 %20, true
  %22 = zext i1 %21 to i64
  %23 = call i64 @llvm.expect.i64(i64 %22, i64 1)
  %24 = icmp ne i64 %23, 0
  br i1 %24, label %25, label %26

25:                                               ; preds = %18
  br label %32

26:                                               ; preds = %18
  invoke void @_ZN5arrow4util7VoidifyC2Ev(ptr noundef nonnull align 1 dereferenceable(1) %7)
          to label %27 unwind label %43

27:                                               ; preds = %26
  call void @llvm.lifetime.start.p0(i64 24, ptr %8) #15
  store i1 true, ptr %9, align 1
  invoke void @_ZN5arrow4util8ArrowLogC1EPKciNS0_13ArrowLogLevelE(ptr noundef nonnull align 8 dereferenceable(17) %8, ptr noundef @.str, i32 noundef 40, i32 noundef 3)
          to label %28 unwind label %47

28:                                               ; preds = %27
  store i1 true, ptr %10, align 1
  %29 = invoke noundef nonnull align 8 dereferenceable(8) ptr @_ZN5arrow4util12ArrowLogBaselsIA56_cEERS1_RKT_(ptr noundef nonnull align 8 dereferenceable(8) %8, ptr noundef nonnull align 1 dereferenceable(56) @.str.1)
          to label %30 unwind label %51

30:                                               ; preds = %28
  invoke void @_ZN5arrow4util7VoidifyanERNS0_12ArrowLogBaseE(ptr noundef nonnull align 1 dereferenceable(1) %7, ptr noundef nonnull align 8 dereferenceable(8) %29)
          to label %31 unwind label %51

31:                                               ; preds = %30
  br label %32

32:                                               ; preds = %31, %25
  %33 = load i1, ptr %10, align 1
  br i1 %33, label %34, label %35

34:                                               ; preds = %32
  call void @_ZN5arrow4util8ArrowLogD1Ev(ptr noundef nonnull align 8 dereferenceable(17) %8) #15
  br label %35

35:                                               ; preds = %34, %32
  %36 = load i1, ptr %9, align 1
  br i1 %36, label %37, label %38

37:                                               ; preds = %35
  call void @llvm.lifetime.end.p0(i64 24, ptr %8) #15
  br label %38

38:                                               ; preds = %37, %35
  call void @llvm.lifetime.end.p0(i64 1, ptr %7) #15
  ret void

39:                                               ; preds = %2
  %40 = landingpad { ptr, i32 }
          cleanup
  %41 = extractvalue { ptr, i32 } %40, 0
  store ptr %41, ptr %5, align 8
  %42 = extractvalue { ptr, i32 } %40, 1
  store i32 %42, ptr %6, align 4
  br label %63

43:                                               ; preds = %26
  %44 = landingpad { ptr, i32 }
          cleanup
  %45 = extractvalue { ptr, i32 } %44, 0
  store ptr %45, ptr %5, align 8
  %46 = extractvalue { ptr, i32 } %44, 1
  store i32 %46, ptr %6, align 4
  br label %62

47:                                               ; preds = %27
  %48 = landingpad { ptr, i32 }
          cleanup
  %49 = extractvalue { ptr, i32 } %48, 0
  store ptr %49, ptr %5, align 8
  %50 = extractvalue { ptr, i32 } %48, 1
  store i32 %50, ptr %6, align 4
  br label %58

51:                                               ; preds = %30, %28
  %52 = landingpad { ptr, i32 }
          cleanup
  %53 = extractvalue { ptr, i32 } %52, 0
  store ptr %53, ptr %5, align 8
  %54 = extractvalue { ptr, i32 } %52, 1
  store i32 %54, ptr %6, align 4
  %55 = load i1, ptr %10, align 1
  br i1 %55, label %56, label %57

56:                                               ; preds = %51
  call void @_ZN5arrow4util8ArrowLogD1Ev(ptr noundef nonnull align 8 dereferenceable(17) %8) #15
  br label %57

57:                                               ; preds = %56, %51
  br label %58

58:                                               ; preds = %57, %47
  %59 = load i1, ptr %9, align 1
  br i1 %59, label %60, label %61

60:                                               ; preds = %58
  call void @llvm.lifetime.end.p0(i64 24, ptr %8) #15
  br label %61

61:                                               ; preds = %60, %58
  br label %62

62:                                               ; preds = %61, %43
  call void @llvm.lifetime.end.p0(i64 1, ptr %7) #15
  br label %63

63:                                               ; preds = %62, %39
  call void @_ZN5arrow5ArrayD2Ev(ptr noundef nonnull align 8 dereferenceable(52) %11) #15
  br label %64

64:                                               ; preds = %63
  %65 = load ptr, ptr %5, align 8
  %66 = load i32, ptr %6, align 4
  %67 = insertvalue { ptr, i32 } poison, ptr %65, 0
  %68 = insertvalue { ptr, i32 } %67, i32 %66, 1
  resume { ptr, i32 } %68
}