; Function Attrs: mustprogress uwtable
define void @_ZN5arrow14Decimal32ArrayC2ERKSt10shared_ptrINS_9ArrayDataEE(ptr noundef nonnull align 8 dereferenceable(52) %0, ptr noundef nonnull align 8 dereferenceable(16) %1) unnamed_addr #1 align 2 personality ptr @__gxx_personality_v0 {
  %3 = alloca %"class.arrow::util::ArrowLog", align 8
  tail call void @_ZN5arrow20FixedSizeBinaryArrayC2ERKSt10shared_ptrINS_9ArrayDataEE(ptr noundef nonnull align 8 dereferenceable(52) %0, ptr noundef nonnull align 8 dereferenceable(16) %1)
  store ptr getelementptr inbounds nuw inrange(-16, 16) (i8, ptr @_ZTVN5arrow14Decimal32ArrayE, i64 16), ptr %0, align 8, !tbaa !32
  %4 = load ptr, ptr %1, align 8, !tbaa !34
  %5 = load ptr, ptr %4, align 8, !tbaa !40
  %6 = getelementptr inbounds nuw i8, ptr %5, i64 40
  %7 = load i32, ptr %6, align 8, !tbaa !43
  %.not = icmp eq i32 %7, 43
  br i1 %.not, label %.critedge12, label %8, !prof !59

8:                                                ; preds = %2
  call void @llvm.lifetime.start.p0(i64 24, ptr nonnull %3) #10
  invoke void @_ZN5arrow4util8ArrowLogC1EPKciNS0_13ArrowLogLevelE(ptr noundef nonnull align 8 dereferenceable(17) %3, ptr noundef nonnull @.str, i32 noundef 40, i32 noundef 3)
          to label %9 unwind label %11

9:                                                ; preds = %8
  %10 = invoke noundef nonnull align 8 dereferenceable(8) ptr @_ZN5arrow4util12ArrowLogBaselsIA56_cEERS1_RKT_(ptr noundef nonnull align 8 dereferenceable(8) %3, ptr noundef nonnull align 1 dereferenceable(56) @.str.1)
          to label %.critedge unwind label %13

.critedge:                                        ; preds = %9
  call void @_ZN5arrow4util8ArrowLogD1Ev(ptr noundef nonnull align 8 dereferenceable(17) %3) #10
  call void @llvm.lifetime.end.p0(i64 24, ptr nonnull %3) #10
  br label %.critedge12

.critedge12:                                      ; preds = %2, %.critedge
  ret void

11:                                               ; preds = %8
  %12 = landingpad { ptr, i32 }
          cleanup
  br label %15

13:                                               ; preds = %9
  %14 = landingpad { ptr, i32 }
          cleanup
  call void @_ZN5arrow4util8ArrowLogD1Ev(ptr noundef nonnull align 8 dereferenceable(17) %3) #10
  br label %15

15:                                               ; preds = %11, %13
  %.pn = phi { ptr, i32 } [ %14, %13 ], [ %12, %11 ]
  call void @llvm.lifetime.end.p0(i64 24, ptr nonnull %3) #10
  call void @_ZN5arrow5ArrayD2Ev(ptr noundef nonnull align 8 dereferenceable(52) %0) #10
  resume { ptr, i32 } %.pn
}